; ModuleID = '23/30.c'
source_filename = "23/30.c"
target datalayout = "e-m:e-p270:32:32-p271:32:32-p272:64:64-i64:64-f80:128-n8:16:32:64-S128"
target triple = "x86_64-pc-linux-gnu"

@.str = private unnamed_addr constant [4 x i8] c"%s \00", align 1
@.str.1 = private unnamed_addr constant [3 x i8] c"%s\00", align 1

; Function Attrs: noinline nounwind uwtable
define dso_local i32 @main() #0 {
  %1 = alloca i32, align 4
  %2 = alloca i8*, align 8
  %3 = alloca [200 x i8], align 16
  %4 = alloca i8, align 1
  %5 = alloca i8, align 1
  store i32 0, i32* %1, align 4
  %6 = getelementptr inbounds [200 x i8], [200 x i8]* %3, i64 0, i64 0
  store i8* %6, i8** %2, align 8
  %7 = load i8*, i8** %2, align 8
  %8 = call i32 (i8*, ...) bitcast (i32 (...)* @gets to i32 (i8*, ...)*)(i8* %7)
  %9 = load i8*, i8** %2, align 8
  %10 = call i64 @strlen(i8* %9) #3
  %11 = trunc i64 %10 to i8
  store i8 %11, i8* %4, align 1
  %12 = load i8, i8* %4, align 1
  %13 = sext i8 %12 to i32
  %14 = add nsw i32 %13, 1
  %15 = trunc i32 %14 to i8
  store i8 %15, i8* %5, align 1
  br label %16

16:                                               ; preds = %43, %0
  %17 = load i8, i8* %5, align 1
  %18 = sext i8 %17 to i32
  %19 = icmp sge i32 %18, 0
  br i1 %19, label %20, label %46

20:                                               ; preds = %16
  %21 = load i8*, i8** %2, align 8
  %22 = load i8, i8* %5, align 1
  %23 = sext i8 %22 to i32
  %24 = sext i32 %23 to i64
  %25 = getelementptr inbounds i8, i8* %21, i64 %24
  %26 = load i8, i8* %25, align 1
  %27 = sext i8 %26 to i32
  %28 = icmp eq i32 %27, 32
  br i1 %28, label %29, label %42

29:                                               ; preds = %20
  %30 = load i8*, i8** %2, align 8
  %31 = load i8, i8* %5, align 1
  %32 = sext i8 %31 to i32
  %33 = sext i32 %32 to i64
  %34 = getelementptr inbounds i8, i8* %30, i64 %33
  %35 = getelementptr inbounds i8, i8* %34, i64 1
  %36 = call i32 (i8*, ...) @printf(i8* getelementptr inbounds ([4 x i8], [4 x i8]* @.str, i64 0, i64 0), i8* %35)
  %37 = load i8*, i8** %2, align 8
  %38 = load i8, i8* %5, align 1
  %39 = sext i8 %38 to i32
  %40 = sext i32 %39 to i64
  %41 = getelementptr inbounds i8, i8* %37, i64 %40
  store i8 0, i8* %41, align 1
  br label %42

42:                                               ; preds = %29, %20
  br label %43

43:                                               ; preds = %42
  %44 = load i8, i8* %5, align 1
  %45 = add i8 %44, -1
  store i8 %45, i8* %5, align 1
  br label %16

46:                                               ; preds = %16
  %47 = load i8*, i8** %2, align 8
  %48 = call i32 (i8*, ...) @printf(i8* getelementptr inbounds ([3 x i8], [3 x i8]* @.str.1, i64 0, i64 0), i8* %47)
  %49 = load i32, i32* %1, align 4
  ret i32 %49
}

declare dso_local i32 @gets(...) #1

; Function Attrs: nounwind readonly
declare dso_local i64 @strlen(i8*) #2

declare dso_local i32 @printf(i8*, ...) #1


!llvm.module.flags = !{!0}
!llvm.ident = !{!1}

!0 = !{i32 1, !"wchar_size", i32 4}
!1 = !{!"clang version 10.0.0-4ubuntu1 "}
